; Function Attrs: mustprogress nofree norecurse nosync nounwind willreturn memory(write, argmem: readwrite, inaccessiblemem: none) uwtable
define hidden void @_ZN10SampleList4linkEP12ObjectSample(ptr nocapture noundef nonnull align 8 dereferenceable(80) %0, ptr noundef %1) local_unnamed_addr #3 align 2 {
  %3 = getelementptr inbounds i8, ptr %0, i64 24
  %4 = getelementptr inbounds i8, ptr %1, i64 8
  store ptr null, ptr %4, align 8
  %5 = load ptr, ptr %3, align 8
  %.not.i = icmp eq ptr %5, null
  br i1 %.not.i, label %9, label %6

6:                                                ; preds = %2
  %7 = getelementptr inbounds i8, ptr %5, i64 8
  store ptr %1, ptr %7, align 8
  %8 = load ptr, ptr %3, align 8
  br label %_ZN19JfrDoublyLinkedListI12ObjectSampleE7prependEPS0_.exit

9:                                                ; preds = %2
  %10 = getelementptr inbounds i8, ptr %0, i64 32
  store ptr %1, ptr %10, align 8
  br label %_ZN19JfrDoublyLinkedListI12ObjectSampleE7prependEPS0_.exit

_ZN19JfrDoublyLinkedListI12ObjectSampleE7prependEPS0_.exit: ; preds = %6, %9
  %storemerge.i = phi ptr [ %8, %6 ], [ null, %9 ]
  store ptr %storemerge.i, ptr %1, align 8
  store ptr %1, ptr %3, align 8
  %11 = getelementptr inbounds i8, ptr %0, i64 40
  %12 = load i64, ptr %11, align 8
  %13 = add i64 %12, 1
  store i64 %13, ptr %11, align 8
  ret void
}